target datalayout = "e-m:e-p270:32:32-p271:32:32-p272:64:64-i64:64-i128:128-f80:128-n8:16:32:64-S128"
target triple = "x86_64-pc-linux-gnu"

%struct.expert_field = type { i32, i32 }

@hf_cflow_mpls_label = internal global i32 0, align 4
@hf_cflow_mpls_exp = internal global i32 0, align 4
@hf_cflow_mpls_bos = internal global i32 0, align 4
@ett_mpls_label = internal global i32 0, align 4
@ei_cflow_mpls_label_bad_length = internal global %struct.expert_field zeroinitializer, align 4
@.str.4632 = private unnamed_addr constant [1 x i8] zeroinitializer, align 1
@.str.4698 = private unnamed_addr constant [33 x i8] c"MPLS-Label%d: %u exp-bits: %u %s\00", align 1
@.str.4699 = private unnamed_addr constant [16 x i8] c"bottom-of-stack\00", align 1
@.str.4700 = private unnamed_addr constant [28 x i8] c"MPLS-Label%d: bad length %d\00", align 1

; Function Attrs: null_pointer_is_valid sspstrong uwtable
define internal ptr @proto_tree_add_mpls_label(ptr noundef %0, ptr noundef %1, i32 noundef %2, i32 noundef %3, i32 noundef %4) #0 {
  %6 = alloca ptr, align 8
  %7 = alloca ptr, align 8
  %8 = alloca i32, align 4
  %9 = alloca i32, align 4
  %10 = alloca i32, align 4
  %11 = alloca ptr, align 8
  %12 = alloca ptr, align 8
  %13 = alloca i8, align 1
  %14 = alloca i8, align 1
  %15 = alloca i8, align 1
  %16 = alloca i32, align 4
  %17 = alloca i8, align 1
  %18 = alloca i8, align 1
  store ptr %0, ptr %6, align 8
  store ptr %1, ptr %7, align 8
  store i32 %2, ptr %8, align 4
  store i32 %3, ptr %9, align 4
  store i32 %4, ptr %10, align 4
  call void @llvm.lifetime.start.p0(i64 8, ptr %11) #16
  call void @llvm.lifetime.start.p0(i64 8, ptr %12) #16
  %19 = load i32, ptr %9, align 4
  %20 = icmp eq i32 %19, 3
  br i1 %20, label %21, label %84

21:                                               ; preds = %5
  call void @llvm.lifetime.start.p0(i64 1, ptr %13) #16
  %22 = load ptr, ptr %7, align 8
  %23 = load i32, ptr %8, align 4
  %24 = call zeroext i8 @tvb_get_uint8(ptr noundef %22, i32 noundef %23)
  store i8 %24, ptr %13, align 1
  call void @llvm.lifetime.start.p0(i64 1, ptr %14) #16
  %25 = load ptr, ptr %7, align 8
  %26 = load i32, ptr %8, align 4
  %27 = add i32 %26, 1
  %28 = call zeroext i8 @tvb_get_uint8(ptr noundef %25, i32 noundef %27)
  store i8 %28, ptr %14, align 1
  call void @llvm.lifetime.start.p0(i64 1, ptr %15) #16
  %29 = load ptr, ptr %7, align 8
  %30 = load i32, ptr %8, align 4
  %31 = add i32 %30, 2
  %32 = call zeroext i8 @tvb_get_uint8(ptr noundef %29, i32 noundef %31)
  store i8 %32, ptr %15, align 1
  call void @llvm.lifetime.start.p0(i64 4, ptr %16) #16
  %33 = load i8, ptr %13, align 1
  %34 = zext i8 %33 to i32
  %35 = shl i32 %34, 12
  %36 = load i8, ptr %14, align 1
  %37 = zext i8 %36 to i32
  %38 = shl i32 %37, 4
  %39 = add i32 %35, %38
  %40 = load i8, ptr %15, align 1
  %41 = zext i8 %40 to i32
  %42 = ashr i32 %41, 4
  %43 = add i32 %39, %42
  store i32 %43, ptr %16, align 4
  call void @llvm.lifetime.start.p0(i64 1, ptr %17) #16
  %44 = load i8, ptr %15, align 1
  %45 = zext i8 %44 to i32
  %46 = ashr i32 %45, 1
  %47 = and i32 %46, 7
  %48 = trunc i32 %47 to i8
  store i8 %48, ptr %17, align 1
  call void @llvm.lifetime.start.p0(i64 1, ptr %18) #16
  %49 = load i8, ptr %15, align 1
  %50 = zext i8 %49 to i32
  %51 = and i32 %50, 1
  %52 = trunc i32 %51 to i8
  store i8 %52, ptr %18, align 1
  %53 = load ptr, ptr %6, align 8
  %54 = load ptr, ptr %7, align 8
  %55 = load i32, ptr %8, align 4
  %56 = load i32, ptr %9, align 4
  %57 = load i32, ptr @ett_mpls_label, align 4
  %58 = load i32, ptr %10, align 4
  %59 = load i32, ptr %16, align 4
  %60 = load i8, ptr %17, align 1
  %61 = zext i8 %60 to i32
  %62 = load i8, ptr %18, align 1
  %63 = zext i8 %62 to i32
  %64 = icmp ne i32 %63, 0
  %65 = select i1 %64, ptr @.str.4699, ptr @.str.4632
  %66 = call ptr (ptr, ptr, i32, i32, i32, ptr, ptr, ...) @proto_tree_add_subtree_format(ptr noundef %53, ptr noundef %54, i32 noundef %55, i32 noundef %56, i32 noundef %57, ptr noundef %12, ptr noundef @.str.4698, i32 noundef %58, i32 noundef %59, i32 noundef %61, ptr noundef %65)
  store ptr %66, ptr %11, align 8
  %67 = load ptr, ptr %11, align 8
  %68 = load i32, ptr @hf_cflow_mpls_label, align 4
  %69 = load ptr, ptr %7, align 8
  %70 = load i32, ptr %8, align 4
  %71 = call ptr @proto_tree_add_item(ptr noundef %67, i32 noundef %68, ptr noundef %69, i32 noundef %70, i32 noundef 3, i32 noundef 0)
  %72 = load ptr, ptr %11, align 8
  %73 = load i32, ptr @hf_cflow_mpls_exp, align 4
  %74 = load ptr, ptr %7, align 8
  %75 = load i32, ptr %8, align 4
  %76 = add i32 %75, 2
  %77 = call ptr @proto_tree_add_item(ptr noundef %72, i32 noundef %73, ptr noundef %74, i32 noundef %76, i32 noundef 1, i32 noundef 0)
  %78 = load ptr, ptr %11, align 8
  %79 = load i32, ptr @hf_cflow_mpls_bos, align 4
  %80 = load ptr, ptr %7, align 8
  %81 = load i32, ptr %8, align 4
  %82 = add i32 %81, 2
  %83 = call ptr @proto_tree_add_item(ptr noundef %78, i32 noundef %79, ptr noundef %80, i32 noundef %82, i32 noundef 1, i32 noundef 0)
  call void @llvm.lifetime.end.p0(i64 1, ptr %18) #16
  call void @llvm.lifetime.end.p0(i64 1, ptr %17) #16
  call void @llvm.lifetime.end.p0(i64 4, ptr %16) #16
  call void @llvm.lifetime.end.p0(i64 1, ptr %15) #16
  call void @llvm.lifetime.end.p0(i64 1, ptr %14) #16
  call void @llvm.lifetime.end.p0(i64 1, ptr %13) #16
  br label %92

84:                                               ; preds = %5
  %85 = load ptr, ptr %6, align 8
  %86 = load ptr, ptr %7, align 8
  %87 = load i32, ptr %8, align 4
  %88 = load i32, ptr %9, align 4
  %89 = load i32, ptr %10, align 4
  %90 = load i32, ptr %9, align 4
  %91 = call ptr (ptr, ptr, ptr, ptr, i32, i32, ptr, ...) @proto_tree_add_expert_format(ptr noundef %85, ptr noundef null, ptr noundef @ei_cflow_mpls_label_bad_length, ptr noundef %86, i32 noundef %87, i32 noundef %88, ptr noundef @.str.4700, i32 noundef %89, i32 noundef %90)
  store ptr %91, ptr %12, align 8
  br label %92

92:                                               ; preds = %84, %21
  %93 = load ptr, ptr %12, align 8
  call void @llvm.lifetime.end.p0(i64 8, ptr %12) #16
  call void @llvm.lifetime.end.p0(i64 8, ptr %11) #16
  ret ptr %93
}