; Function Attrs: null_pointer_is_valid sspstrong uwtable
define internal fastcc ptr @proto_tree_add_mpls_label(ptr noundef %0, ptr noundef %1, i32 noundef %2, i32 noundef range(i32 0, 65536) %3, i32 noundef range(i32 1, 11) %4) unnamed_addr #0 {
  %6 = alloca ptr, align 8
  call void @llvm.lifetime.start.p0(i64 8, ptr nonnull %6) #13
  %7 = icmp eq i32 %3, 3
  br i1 %7, label %8, label %35

8:                                                ; preds = %5
  %9 = tail call zeroext i8 @tvb_get_uint8(ptr noundef %1, i32 noundef %2)
  %10 = add i32 %2, 1
  %11 = tail call zeroext i8 @tvb_get_uint8(ptr noundef %1, i32 noundef %10)
  %12 = add i32 %2, 2
  %13 = tail call zeroext i8 @tvb_get_uint8(ptr noundef %1, i32 noundef %12)
  %14 = zext i8 %9 to i32
  %15 = shl nuw nsw i32 %14, 12
  %16 = zext i8 %11 to i32
  %17 = shl nuw nsw i32 %16, 4
  %18 = or disjoint i32 %17, %15
  %19 = lshr i8 %13, 4
  %20 = zext nneg i8 %19 to i32
  %21 = or disjoint i32 %18, %20
  %22 = lshr i8 %13, 1
  %23 = and i8 %22, 7
  %24 = and i8 %13, 1
  %25 = load i32, ptr @ett_mpls_label, align 4
  %26 = zext nneg i8 %23 to i32
  %.not = icmp eq i8 %24, 0
  %27 = select i1 %.not, ptr @.str.4632, ptr @.str.4699
  %28 = call ptr (ptr, ptr, i32, i32, i32, ptr, ptr, ...) @proto_tree_add_subtree_format(ptr noundef %0, ptr noundef %1, i32 noundef %2, i32 noundef 3, i32 noundef %25, ptr noundef nonnull %6, ptr noundef nonnull @.str.4698, i32 noundef %4, i32 noundef %21, i32 noundef %26, ptr noundef nonnull %27)
  %29 = load i32, ptr @hf_cflow_mpls_label, align 4
  %30 = call ptr @proto_tree_add_item(ptr noundef %28, i32 noundef %29, ptr noundef %1, i32 noundef %2, i32 noundef 3, i32 noundef 0)
  %31 = load i32, ptr @hf_cflow_mpls_exp, align 4
  %32 = call ptr @proto_tree_add_item(ptr noundef %28, i32 noundef %31, ptr noundef %1, i32 noundef %12, i32 noundef 1, i32 noundef 0)
  %33 = load i32, ptr @hf_cflow_mpls_bos, align 4
  %34 = call ptr @proto_tree_add_item(ptr noundef %28, i32 noundef %33, ptr noundef %1, i32 noundef %12, i32 noundef 1, i32 noundef 0)
  %.pre = load ptr, ptr %6, align 8
  br label %37

35:                                               ; preds = %5
  %36 = tail call ptr (ptr, ptr, ptr, ptr, i32, i32, ptr, ...) @proto_tree_add_expert_format(ptr noundef %0, ptr noundef null, ptr noundef nonnull @ei_cflow_mpls_label_bad_length, ptr noundef %1, i32 noundef %2, i32 noundef %3, ptr noundef nonnull @.str.4700, i32 noundef %4, i32 noundef %3)
  br label %37

37:                                               ; preds = %35, %8
  %38 = phi ptr [ %36, %35 ], [ %.pre, %8 ]
  call void @llvm.lifetime.end.p0(i64 8, ptr nonnull %6) #13
  ret ptr %38
}